target datalayout = "e-m:e-p270:32:32-p271:32:32-p272:64:64-i64:64-i128:128-f80:128-n8:16:32:64-S128"
target triple = "x86_64-pc-linux-gnu"

%struct.expert_field = type { i32, i32 }
%struct._packet_info = type { ptr, ptr, i32, i32, %struct.nstime_t, %struct.nstime_t, %struct.nstime_t, i8, ptr, ptr, ptr, ptr, %struct._address, %struct._address, %struct._address, %struct._address, %struct._address, %struct._address, i32, ptr, i8, [3 x i8], %struct.anon, i32, i32, i32, i32, ptr, i8, ptr, ptr, i16, i16, i32, i32, i16, i32, i32, ptr, ptr, ptr, i8, i8, i16, i16, i16, i32, i16, i16, ptr, ptr, ptr, ptr, ptr, i32, i32 }
%struct.nstime_t = type { i64, i32 }
%struct._address = type { i32, i32, ptr, ptr }
%struct.anon = type { i8, [3 x i8] }

@hf_uftp_destlist = internal global i32 0, align 4
@hf_uftp_dest = internal global i32 0, align 4
@hf_uftp_done = internal global i32 0, align 4
@hf_uftp_done_func = internal global i32 0, align 4
@hf_uftp_done_pass = internal global i32 0, align 4
@hf_uftp_done_section = internal global i32 0, align 4
@hf_uftp_done_file_id = internal global i32 0, align 4
@hf_uftp_done_destcount = internal global i32 0, align 4
@ett_uftp_done = internal global i32 0, align 4
@ett_uftp_destlist = internal global i32 0, align 4
@ei_uftp_length_invalid = internal global %struct.expert_field zeroinitializer, align 4
@.str.289 = private unnamed_addr constant [19 x i8] c"Invalid length: %d\00", align 1
@.str.292 = private unnamed_addr constant [35 x i8] c"Invalid length, len = %d, count=%d\00", align 1
@.str.295 = private unnamed_addr constant [27 x i8] c":%04X  Pass=%d  Section=%d\00", align 1

; Function Attrs: null_pointer_is_valid sspstrong uwtable
define internal void @dissect_uftp_done(ptr noundef %0, ptr noundef %1, ptr noundef %2) #0 {
  %4 = alloca ptr, align 8
  %5 = alloca ptr, align 8
  %6 = alloca ptr, align 8
  %7 = alloca ptr, align 8
  %8 = alloca ptr, align 8
  %9 = alloca ptr, align 8
  %10 = alloca ptr, align 8
  %11 = alloca i32, align 4
  %12 = alloca i8, align 1
  %13 = alloca i16, align 2
  %14 = alloca i16, align 2
  %15 = alloca i16, align 2
  %16 = alloca i16, align 2
  %17 = alloca i32, align 4
  store ptr %0, ptr %4, align 8
  store ptr %1, ptr %5, align 8
  store ptr %2, ptr %6, align 8
  call void @llvm.lifetime.start.p0(i64 8, ptr %7) #3
  store ptr null, ptr %7, align 8
  call void @llvm.lifetime.start.p0(i64 8, ptr %8) #3
  store ptr null, ptr %8, align 8
  call void @llvm.lifetime.start.p0(i64 8, ptr %9) #3
  store ptr null, ptr %9, align 8
  call void @llvm.lifetime.start.p0(i64 8, ptr %10) #3
  store ptr null, ptr %10, align 8
  call void @llvm.lifetime.start.p0(i64 4, ptr %11) #3
  store i32 0, ptr %11, align 4
  call void @llvm.lifetime.start.p0(i64 1, ptr %12) #3
  call void @llvm.lifetime.start.p0(i64 2, ptr %13) #3
  call void @llvm.lifetime.start.p0(i64 2, ptr %14) #3
  call void @llvm.lifetime.start.p0(i64 2, ptr %15) #3
  call void @llvm.lifetime.start.p0(i64 2, ptr %16) #3
  %18 = load ptr, ptr %4, align 8
  %19 = call i32 @tvb_reported_length(ptr noundef %18)
  %20 = icmp ult i32 %19, 8
  br i1 %20, label %21, label %29

21:                                               ; preds = %3
  %22 = load ptr, ptr %6, align 8
  %23 = load ptr, ptr %5, align 8
  %24 = load ptr, ptr %4, align 8
  %25 = load i32, ptr %11, align 4
  %26 = load ptr, ptr %4, align 8
  %27 = call i32 @tvb_reported_length(ptr noundef %26)
  %28 = call ptr (ptr, ptr, ptr, ptr, i32, i32, ptr, ...) @proto_tree_add_expert_format(ptr noundef %22, ptr noundef %23, ptr noundef @ei_uftp_length_invalid, ptr noundef %24, i32 noundef %25, i32 noundef -1, ptr noundef @.str.289, i32 noundef %27)
  store i32 1, ptr %17, align 4
  br label %147

29:                                               ; preds = %3
  %30 = load ptr, ptr %4, align 8
  %31 = call zeroext i16 @tvb_get_ntohs(ptr noundef %30, i32 noundef 6)
  store i16 %31, ptr %15, align 2
  %32 = load ptr, ptr %4, align 8
  %33 = call i32 @tvb_reported_length(ptr noundef %32)
  %34 = load i16, ptr %15, align 2
  %35 = zext i16 %34 to i32
  %36 = mul i32 %35, 4
  %37 = add i32 8, %36
  %38 = icmp slt i32 %33, %37
  br i1 %38, label %39, label %49

39:                                               ; preds = %29
  %40 = load ptr, ptr %6, align 8
  %41 = load ptr, ptr %5, align 8
  %42 = load ptr, ptr %4, align 8
  %43 = load i32, ptr %11, align 4
  %44 = load ptr, ptr %4, align 8
  %45 = call i32 @tvb_reported_length(ptr noundef %44)
  %46 = load i16, ptr %15, align 2
  %47 = zext i16 %46 to i32
  %48 = call ptr (ptr, ptr, ptr, ptr, i32, i32, ptr, ...) @proto_tree_add_expert_format(ptr noundef %40, ptr noundef %41, ptr noundef @ei_uftp_length_invalid, ptr noundef %42, i32 noundef %43, i32 noundef -1, ptr noundef @.str.292, i32 noundef %45, i32 noundef %47)
  store i32 1, ptr %17, align 4
  br label %147

49:                                               ; preds = %29
  %50 = load ptr, ptr %4, align 8
  %51 = call zeroext i8 @tvb_get_uint8(ptr noundef %50, i32 noundef 1)
  store i8 %51, ptr %12, align 1
  %52 = load ptr, ptr %4, align 8
  %53 = call zeroext i16 @tvb_get_ntohs(ptr noundef %52, i32 noundef 2)
  store i16 %53, ptr %14, align 2
  %54 = load ptr, ptr %4, align 8
  %55 = call zeroext i16 @tvb_get_ntohs(ptr noundef %54, i32 noundef 4)
  store i16 %55, ptr %13, align 2
  %56 = load i16, ptr %13, align 2
  %57 = zext i16 %56 to i32
  %58 = icmp sgt i32 %57, 0
  br i1 %58, label %59, label %69

59:                                               ; preds = %49
  %60 = load ptr, ptr %5, align 8
  %61 = getelementptr inbounds nuw %struct._packet_info, ptr %60, i32 0, i32 1
  %62 = load ptr, ptr %61, align 8
  %63 = load i16, ptr %13, align 2
  %64 = zext i16 %63 to i32
  %65 = load i8, ptr %12, align 1
  %66 = zext i8 %65 to i32
  %67 = load i16, ptr %14, align 2
  %68 = zext i16 %67 to i32
  call void (ptr, i32, ptr, ...) @col_append_fstr(ptr noundef %62, i32 noundef 25, ptr noundef @.str.295, i32 noundef %64, i32 noundef %66, i32 noundef %68)
  br label %69

69:                                               ; preds = %59, %49
  %70 = load ptr, ptr %6, align 8
  %71 = load i32, ptr @hf_uftp_done, align 4
  %72 = load ptr, ptr %4, align 8
  %73 = load i32, ptr %11, align 4
  %74 = call ptr @proto_tree_add_item(ptr noundef %70, i32 noundef %71, ptr noundef %72, i32 noundef %73, i32 noundef -1, i32 noundef 0)
  store ptr %74, ptr %7, align 8
  %75 = load ptr, ptr %7, align 8
  %76 = load i32, ptr @ett_uftp_done, align 4
  %77 = call ptr @proto_item_add_subtree(ptr noundef %75, i32 noundef %76)
  store ptr %77, ptr %9, align 8
  %78 = load ptr, ptr %9, align 8
  %79 = load i32, ptr @hf_uftp_done_func, align 4
  %80 = load ptr, ptr %4, align 8
  %81 = load i32, ptr %11, align 4
  %82 = call ptr @proto_tree_add_item(ptr noundef %78, i32 noundef %79, ptr noundef %80, i32 noundef %81, i32 noundef 1, i32 noundef 0)
  %83 = load i32, ptr %11, align 4
  %84 = add i32 %83, 1
  store i32 %84, ptr %11, align 4
  %85 = load ptr, ptr %9, align 8
  %86 = load i32, ptr @hf_uftp_done_pass, align 4
  %87 = load ptr, ptr %4, align 8
  %88 = load i32, ptr %11, align 4
  %89 = call ptr @proto_tree_add_item(ptr noundef %85, i32 noundef %86, ptr noundef %87, i32 noundef %88, i32 noundef 1, i32 noundef 0)
  %90 = load i32, ptr %11, align 4
  %91 = add i32 %90, 1
  store i32 %91, ptr %11, align 4
  %92 = load ptr, ptr %9, align 8
  %93 = load i32, ptr @hf_uftp_done_section, align 4
  %94 = load ptr, ptr %4, align 8
  %95 = load i32, ptr %11, align 4
  %96 = call ptr @proto_tree_add_item(ptr noundef %92, i32 noundef %93, ptr noundef %94, i32 noundef %95, i32 noundef 2, i32 noundef 0)
  %97 = load i32, ptr %11, align 4
  %98 = add i32 %97, 2
  store i32 %98, ptr %11, align 4
  %99 = load ptr, ptr %9, align 8
  %100 = load i32, ptr @hf_uftp_done_file_id, align 4
  %101 = load ptr, ptr %4, align 8
  %102 = load i32, ptr %11, align 4
  %103 = call ptr @proto_tree_add_item(ptr noundef %99, i32 noundef %100, ptr noundef %101, i32 noundef %102, i32 noundef 2, i32 noundef 0)
  %104 = load i32, ptr %11, align 4
  %105 = add i32 %104, 2
  store i32 %105, ptr %11, align 4
  %106 = load ptr, ptr %9, align 8
  %107 = load i32, ptr @hf_uftp_done_destcount, align 4
  %108 = load ptr, ptr %4, align 8
  %109 = load i32, ptr %11, align 4
  %110 = call ptr @proto_tree_add_item(ptr noundef %106, i32 noundef %107, ptr noundef %108, i32 noundef %109, i32 noundef 2, i32 noundef 0)
  %111 = load i32, ptr %11, align 4
  %112 = add i32 %111, 2
  store i32 %112, ptr %11, align 4
  %113 = load i16, ptr %15, align 2
  %114 = zext i16 %113 to i32
  %115 = icmp sgt i32 %114, 0
  br i1 %115, label %116, label %128

116:                                              ; preds = %69
  %117 = load ptr, ptr %9, align 8
  %118 = load i32, ptr @hf_uftp_destlist, align 4
  %119 = load ptr, ptr %4, align 8
  %120 = load i32, ptr %11, align 4
  %121 = load i16, ptr %15, align 2
  %122 = zext i16 %121 to i32
  %123 = mul i32 %122, 4
  %124 = call ptr @proto_tree_add_item(ptr noundef %117, i32 noundef %118, ptr noundef %119, i32 noundef %120, i32 noundef %123, i32 noundef 0)
  store ptr %124, ptr %8, align 8
  %125 = load ptr, ptr %8, align 8
  %126 = load i32, ptr @ett_uftp_destlist, align 4
  %127 = call ptr @proto_item_add_subtree(ptr noundef %125, i32 noundef %126)
  store ptr %127, ptr %10, align 8
  br label %128

128:                                              ; preds = %116, %69
  store i16 0, ptr %16, align 2
  br label %129

129:                                              ; preds = %143, %128
  %130 = load i16, ptr %16, align 2
  %131 = zext i16 %130 to i32
  %132 = load i16, ptr %15, align 2
  %133 = zext i16 %132 to i32
  %134 = icmp slt i32 %131, %133
  br i1 %134, label %135, label %146

135:                                              ; preds = %129
  %136 = load ptr, ptr %10, align 8
  %137 = load i32, ptr @hf_uftp_dest, align 4
  %138 = load ptr, ptr %4, align 8
  %139 = load i32, ptr %11, align 4
  %140 = call ptr @proto_tree_add_item(ptr noundef %136, i32 noundef %137, ptr noundef %138, i32 noundef %139, i32 noundef 4, i32 noundef 0)
  %141 = load i32, ptr %11, align 4
  %142 = add i32 %141, 4
  store i32 %142, ptr %11, align 4
  br label %143

143:                                              ; preds = %135
  %144 = load i16, ptr %16, align 2
  %145 = add i16 %144, 1
  store i16 %145, ptr %16, align 2
  br label %129, !llvm.loop !14

146:                                              ; preds = %129
  store i32 0, ptr %17, align 4
  br label %147

147:                                              ; preds = %146, %39, %21
  call void @llvm.lifetime.end.p0(i64 2, ptr %16) #3
  call void @llvm.lifetime.end.p0(i64 2, ptr %15) #3
  call void @llvm.lifetime.end.p0(i64 2, ptr %14) #3
  call void @llvm.lifetime.end.p0(i64 2, ptr %13) #3
  call void @llvm.lifetime.end.p0(i64 1, ptr %12) #3
  call void @llvm.lifetime.end.p0(i64 4, ptr %11) #3
  call void @llvm.lifetime.end.p0(i64 8, ptr %10) #3
  call void @llvm.lifetime.end.p0(i64 8, ptr %9) #3
  call void @llvm.lifetime.end.p0(i64 8, ptr %8) #3
  call void @llvm.lifetime.end.p0(i64 8, ptr %7) #3
  %148 = load i32, ptr %17, align 4
  switch i32 %148, label %150 [
    i32 0, label %149
    i32 1, label %149
  ]

149:                                              ; preds = %147, %147
  ret void

150:                                              ; preds = %147
  unreachable
}