; Function Attrs: null_pointer_is_valid sspstrong uwtable
define internal fastcc void @dissect_uftp_done(ptr noundef %0, ptr noundef %1, ptr noundef %2) unnamed_addr #0 {
  %4 = tail call i32 @tvb_reported_length(ptr noundef %0)
  %5 = icmp ult i32 %4, 8
  br i1 %5, label %6, label %9

6:                                                ; preds = %3
  %7 = tail call i32 @tvb_reported_length(ptr noundef %0)
  %8 = tail call ptr (ptr, ptr, ptr, ptr, i32, i32, ptr, ...) @proto_tree_add_expert_format(ptr noundef %2, ptr noundef %1, ptr noundef nonnull @ei_uftp_length_invalid, ptr noundef %0, i32 noundef 0, i32 noundef -1, ptr noundef nonnull @.str.289, i32 noundef %7)
  br label %.loopexit

9:                                                ; preds = %3
  %10 = tail call zeroext i16 @tvb_get_ntohs(ptr noundef %0, i32 noundef 6)
  %11 = tail call i32 @tvb_reported_length(ptr noundef %0)
  %12 = zext i16 %10 to i32
  %13 = shl nuw nsw i32 %12, 2
  %14 = add nuw nsw i32 %13, 8
  %15 = icmp slt i32 %11, %14
  br i1 %15, label %16, label %19

16:                                               ; preds = %9
  %17 = tail call i32 @tvb_reported_length(ptr noundef %0)
  %18 = tail call ptr (ptr, ptr, ptr, ptr, i32, i32, ptr, ...) @proto_tree_add_expert_format(ptr noundef %2, ptr noundef %1, ptr noundef nonnull @ei_uftp_length_invalid, ptr noundef %0, i32 noundef 0, i32 noundef -1, ptr noundef nonnull @.str.292, i32 noundef %17, i32 noundef %12)
  br label %.loopexit

19:                                               ; preds = %9
  %20 = tail call zeroext i8 @tvb_get_uint8(ptr noundef %0, i32 noundef 1)
  %21 = tail call zeroext i16 @tvb_get_ntohs(ptr noundef %0, i32 noundef 2)
  %22 = tail call zeroext i16 @tvb_get_ntohs(ptr noundef %0, i32 noundef 4)
  %.not = icmp eq i16 %22, 0
  br i1 %.not, label %29, label %23

23:                                               ; preds = %19
  %24 = zext i16 %22 to i32
  %25 = getelementptr inbounds nuw i8, ptr %1, i64 8
  %26 = load ptr, ptr %25, align 8
  %27 = zext i8 %20 to i32
  %28 = zext i16 %21 to i32
  tail call void (ptr, i32, ptr, ...) @col_append_fstr(ptr noundef %26, i32 noundef 25, ptr noundef nonnull @.str.295, i32 noundef %24, i32 noundef %27, i32 noundef %28)
  br label %29

29:                                               ; preds = %23, %19
  %30 = load i32, ptr @hf_uftp_done, align 4
  %31 = tail call ptr @proto_tree_add_item(ptr noundef %2, i32 noundef %30, ptr noundef %0, i32 noundef 0, i32 noundef -1, i32 noundef 0)
  %32 = load i32, ptr @ett_uftp_done, align 4
  %33 = tail call ptr @proto_item_add_subtree(ptr noundef %31, i32 noundef %32)
  %34 = load i32, ptr @hf_uftp_done_func, align 4
  %35 = tail call ptr @proto_tree_add_item(ptr noundef %33, i32 noundef %34, ptr noundef %0, i32 noundef 0, i32 noundef 1, i32 noundef 0)
  %36 = load i32, ptr @hf_uftp_done_pass, align 4
  %37 = tail call ptr @proto_tree_add_item(ptr noundef %33, i32 noundef %36, ptr noundef %0, i32 noundef 1, i32 noundef 1, i32 noundef 0)
  %38 = load i32, ptr @hf_uftp_done_section, align 4
  %39 = tail call ptr @proto_tree_add_item(ptr noundef %33, i32 noundef %38, ptr noundef %0, i32 noundef 2, i32 noundef 2, i32 noundef 0)
  %40 = load i32, ptr @hf_uftp_done_file_id, align 4
  %41 = tail call ptr @proto_tree_add_item(ptr noundef %33, i32 noundef %40, ptr noundef %0, i32 noundef 4, i32 noundef 2, i32 noundef 0)
  %42 = load i32, ptr @hf_uftp_done_destcount, align 4
  %43 = tail call ptr @proto_tree_add_item(ptr noundef %33, i32 noundef %42, ptr noundef %0, i32 noundef 6, i32 noundef 2, i32 noundef 0)
  %.not62 = icmp eq i16 %10, 0
  br i1 %.not62, label %.loopexit, label %.lr.ph.preheader

.lr.ph.preheader:                                 ; preds = %29
  %44 = load i32, ptr @hf_uftp_destlist, align 4
  %45 = tail call ptr @proto_tree_add_item(ptr noundef %33, i32 noundef %44, ptr noundef %0, i32 noundef 8, i32 noundef %13, i32 noundef 0)
  %46 = load i32, ptr @ett_uftp_destlist, align 4
  %47 = tail call ptr @proto_item_add_subtree(ptr noundef %45, i32 noundef %46)
  br label %.lr.ph

.lr.ph:                                           ; preds = %.lr.ph.preheader, %.lr.ph
  %.064 = phi i16 [ %51, %.lr.ph ], [ 0, %.lr.ph.preheader ]
  %.06063 = phi i32 [ %50, %.lr.ph ], [ 8, %.lr.ph.preheader ]
  %48 = load i32, ptr @hf_uftp_dest, align 4
  %49 = tail call ptr @proto_tree_add_item(ptr noundef %47, i32 noundef %48, ptr noundef %0, i32 noundef %.06063, i32 noundef 4, i32 noundef 0)
  %50 = add nuw nsw i32 %.06063, 4
  %51 = add nuw i16 %.064, 1
  %exitcond.not = icmp eq i16 %51, %10
  br i1 %exitcond.not, label %.loopexit, label %.lr.ph, !llvm.loop !14

.loopexit:                                        ; preds = %.lr.ph, %29, %16, %6
  ret void
}